; Function Attrs: mustprogress uwtable
define hidden noundef zeroext i1 @_ZNK17array_decl_plugin15is_unique_valueEP3app(ptr nocapture noundef nonnull readonly align 8 dereferenceable(136) %this, ptr nocapture noundef readonly %_e) unnamed_addr #3 align 2 {
entry:
  %ref.tmp.i.i = alloca %class.symbol, align 8
  %m_manager = getelementptr inbounds i8, ptr %this, i64 8
  %0 = load ptr, ptr %m_manager, align 8
  call void @llvm.lifetime.start.p0(i64 8, ptr nonnull %ref.tmp.i.i)
  call void @_ZN6symbolC1EPKc(ptr noundef nonnull align 8 dereferenceable(8) %ref.tmp.i.i, ptr noundef nonnull @.str.74)
  %m_family_manager.i.i.i = getelementptr inbounds i8, ptr %0, i64 560
  %call.i.i.i = call noundef i32 @_ZN14family_manager12mk_family_idERK6symbol(ptr noundef nonnull align 8 dereferenceable(56) %m_family_manager.i.i.i, ptr noundef nonnull align 8 dereferenceable(8) %ref.tmp.i.i)
  call void @llvm.lifetime.end.p0(i64 8, ptr nonnull %ref.tmp.i.i)
  %m_kind.i.i.i.i = getelementptr inbounds i8, ptr %_e, i64 4
  %bf.load.i.i.i.i = load i32, ptr %m_kind.i.i.i.i, align 4
  %bf.clear.i.i.i.i = and i32 %bf.load.i.i.i.i, 65535
  %cmp.i.i.i = icmp eq i32 %bf.clear.i.i.i.i, 0
  br i1 %cmp.i.i.i, label %land.rhs.i.i.i, label %land.end

land.rhs.i.i.i:                                   ; preds = %entry
  %m_decl.i.i.i.i = getelementptr inbounds i8, ptr %_e, i64 16
  %1 = load ptr, ptr %m_decl.i.i.i.i, align 8
  %m_info.i.i.i.i.i = getelementptr inbounds i8, ptr %1, i64 24
  %2 = load ptr, ptr %m_info.i.i.i.i.i, align 8
  %tobool.not.i.i.i.i.i = icmp eq ptr %2, null
  br i1 %tobool.not.i.i.i.i.i, label %land.end, label %_ZNK17array_recognizers8is_constEP4expr.exit.i

_ZNK17array_recognizers8is_constEP4expr.exit.i:   ; preds = %land.rhs.i.i.i
  %3 = load i32, ptr %2, align 8
  %cmp.i.i.i.i.i.i = icmp eq i32 %3, %call.i.i.i
  %m_kind.i.i.i.i.i.i = getelementptr inbounds i8, ptr %2, i64 4
  %4 = load i32, ptr %m_kind.i.i.i.i.i.i, align 4
  %cmp2.i.i.i.i.i.i = icmp eq i32 %4, 2
  %5 = select i1 %cmp.i.i.i.i.i.i, i1 %cmp2.i.i.i.i.i.i, i1 false
  br i1 %5, label %land.rhs, label %land.end

land.rhs:                                         ; preds = %_ZNK17array_recognizers8is_constEP4expr.exit.i
  %m_args.i.i = getelementptr inbounds i8, ptr %_e, i64 32
  %6 = load ptr, ptr %m_args.i.i, align 8
  %7 = load ptr, ptr %m_manager, align 8
  %call3 = call noundef zeroext i1 @_ZNK11ast_manager15is_unique_valueEP4expr(ptr noundef nonnull align 8 dereferenceable(976) %7, ptr noundef %6)
  br label %land.end

land.end:                                         ; preds = %land.rhs.i.i.i, %entry, %_ZNK17array_recognizers8is_constEP4expr.exit.i, %land.rhs
  %8 = phi i1 [ %call3, %land.rhs ], [ false, %_ZNK17array_recognizers8is_constEP4expr.exit.i ], [ false, %entry ], [ false, %land.rhs.i.i.i ]
  ret i1 %8
}